Certificate:
    Data:
        Version: 3 (0x2)
        Serial Number: 1 (0x1)
    Signature Algorithm: sha256WithRSAEncryption
        Issuer: CN=devcert
        Validity
            Not Before: Apr 29 15:39:43 2020 GMT
            Not After : Aug  2 15:39:43 2022 GMT
        Subject: CN=localhost
        Subject Public Key Info:
            Public Key Algorithm: rsaEncryption
                Public-Key: (2048 bit)
                Modulus:
                    00:bd:5d:ca:32:ab:97:05:b6:8a:7b:cc:79:e6:09:
                    6a:19:a6:4e:fa:82:6d:d3:18:6b:81:27:94:d6:fb:
                    71:89:94:cc:4b:c9:4e:8d:7d:af:18:04:d9:b8:31:
                    f7:07:68:3b:a6:39:03:d6:9d:9d:f9:ab:53:08:43:
                    78:d2:7f:e6:a6:c6:ff:52:2d:ec:cb:04:79:a0:c3:
                    b6:79:7b:f9:45:a5:93:55:f4:6c:bb:26:a5:6f:99:
                    27:b2:29:5e:25:a5:53:59:f7:6f:82:f9:f2:37:a4:
                    c0:25:2b:00:45:8a:c7:f8:06:bb:2c:56:7f:f8:37:
                    1c:76:8f:c1:97:21:ee:81:26:0c:1a:54:4d:22:24:
                    c5:53:54:43:ad:31:30:23:61:fe:83:d0:6a:12:39:
                    f6:d9:25:a4:78:42:60:2e:b3:8f:05:fe:64:73:49:
                    ae:ae:6b:b7:82:88:bc:65:b6:ad:c1:9b:b2:84:35:
                    7f:c4:84:30:1d:90:80:01:00:85:40:19:a2:4d:80:
                    56:6f:3f:c2:97:2f:55:fb:04:75:ea:d2:5f:11:4e:
                    0c:3b:4c:c2:1d:16:d6:fb:d0:4f:5b:d1:21:7f:3e:
                    6c:72:eb:e5:2d:92:c5:42:b1:0b:4e:8a:c8:6a:52:
                    3d:4e:a6:d2:92:66:9c:cb:0e:0e:53:1a:8e:a1:c8:
                    da:db
                Exponent: 65537 (0x10001)
        X509v3 extensions:
            X509v3 Basic Constraints: critical
                CA:FALSE
            X509v3 Subject Key Identifier: 
                F7:E3:CD:DF:21:DD:F2:49:21:97:C1:22:6A:5C:69:7F:98:ED:FD:03
            X509v3 Authority Key Identifier: 
                keyid:87:95:9E:19:D9:D1:35:96:A0:FE:EB:F0:6B:05:0C:07:4E:86:FC:23
                DirName:/CN=devcert
                serial:9D:79:EC:A9:E9:E5:E7:C9

            X509v3 Key Usage: critical
                Digital Signature, Key Encipherment
            X509v3 Extended Key Usage: 
                TLS Web Server Authentication
            X509v3 Subject Alternative Name: 
                DNS:localhost, DNS:*.localhost
    Signature Algorithm: sha256WithRSAEncryption
         1e:44:4f:0f:7c:16:70:b6:6c:54:db:c4:a0:68:1c:ac:a3:f2:
         f7:ed:dc:6a:52:f0:bb:65:65:8c:32:b8:0e:38:cd:da:7d:f7:
         a7:59:db:5b:78:6e:76:7a:4b:71:eb:56:12:e9:27:dd:0c:59:
         58:54:13:0a:6b:43:81:86:b3:3e:3a:42:22:41:28:01:80:1b:
         d7:3a:fc:e6:7f:b6:97:53:11:d7:7e:f4:46:2e:93:fe:18:c3:
         d0:55:09:32:e3:10:57:c0:23:d6:d6:d7:7d:2c:7f:1e:84:77:
         ac:35:42:41:64:e6:4d:34:5b:60:23:7a:d9:eb:5c:3d:f9:de:
         7a:b8:af:58:f5:a0:60:ae:09:ea:ac:41:79:6f:71:2f:6d:cd:
         3b:1d:02:82:1c:b9:fe:44:9b:39:47:3d:ea:eb:3e:c3:0d:8c:
         f2:a5:b3:f3:b3:b3:f2:a7:36:95:cd:c5:1d:5e:52:af:df:81:
         ef:af:a6:7a:22:05:ed:6b:da:5e:f1:47:dc:31:20:b2:7d:5a:
         74:88:94:e5:d6:eb:48:21:04:73:52:b2:bd:a6:0a:a0:f8:6f:
         e4:51:9a:0c:3f:35:71:75:0c:aa:2a:c2:12:84:f1:2e:73:2c:
         e1:d9:96:30:74:de:67:f4:00:63:c3:8d:c8:f8:3a:b4:4c:f4:
         6d:a0:1b:ff
-----BEGIN CERTIFICATE-----
MIIDXjCCAkagAwIBAgIBATANBgkqhkiG9w0BAQsFADASMRAwDgYDVQQDDAdkZXZj
ZXJ0MB4XDTIwMDQyOTE1Mzk0M1oXDTIyMDgwMjE1Mzk0M1owFDESMBAGA1UEAwwJ
bG9jYWxob3N0MIIBIjANBgkqhkiG9w0BAQEFAAOCAQ8AMIIBCgKCAQEAvV3KMquX
BbaKe8x55glqGaZO+oJt0xhrgSeU1vtxiZTMS8lOjX2vGATZuDH3B2g7pjkD1p2d
+atTCEN40n/mpsb/Ui3sywR5oMO2eXv5RaWTVfRsuyalb5knsileJaVTWfdvgvny
N6TAJSsARYrH+Aa7LFZ/+Dccdo/BlyHugSYMGlRNIiTFU1RDrTEwI2H+g9BqEjn2
2SWkeEJgLrOPBf5kc0murmu3goi8ZbatwZuyhDV/xIQwHZCAAQCFQBmiTYBWbz/C
ly9V+wR16tJfEU4MO0zCHRbW+9BPW9Ehfz5scuvlLZLFQrELTorIalI9TqbSkmac
yw4OUxqOocja2wIDAQABo4G8MIG5MAwGA1UdEwEB/wQCMAAwHQYDVR0OBBYEFPfj
zd8h3fJJIZfBImpcaX+Y7f0DMEIGA1UdIwQ7MDmAFIeVnhnZ0TWWoP7r8GsFDAdO
hvwjoRakFDASMRAwDgYDVQQDDAdkZXZjZXJ0ggkAnXnsqenl58kwDgYDVR0PAQH/
BAQDAgWgMBMGA1UdJQQMMAoGCCsGAQUFBwMBMCEGA1UdEQQaMBiCCWxvY2FsaG9z
dIILKi5sb2NhbGhvc3QwDQYJKoZIhvcNAQELBQADggEBAB5ETw98FnC2bFTbxKBo
HKyj8vft3GpS8LtlZYwyuA44zdp996dZ21t4bnZ6S3HrVhLpJ90MWVhUEwprQ4GG
sz46QiJBKAGAG9c6/OZ/tpdTEdd+9EYuk/4Yw9BVCTLjEFfAI9bW130sfx6Ed6w1
QkFk5k00W2AjetnrXD353nq4r1j1oGCuCeqsQXlvcS9tzTsdAoIcuf5EmzlHPerr
PsMNjPKls/Ozs/KnNpXNxR1eUq/fge+vpnoiBe1r2l7xR9wxILJ9WnSIlOXW60gh
BHNSsr2mCqD4b+RRmgw/NXF1DKoqwhKE8S5zLOHZljB03mf0AGPDjcj4OrRM9G2g
G/8=
-----END CERTIFICATE-----
